target datalayout = "e-m:e-p270:32:32-p271:32:32-p272:64:64-i64:64-i128:128-f80:128-n8:16:32:64-S128"
target triple = "x86_64-pc-linux-gnu"

%"struct.faiss::FlatCodesDistanceComputer" = type { %"struct.faiss::DistanceComputer", ptr, i64 }
%"struct.faiss::DistanceComputer" = type { ptr }
%"struct.faiss::(anonymous namespace)::FlatL2WithNormsDis" = type <{ %"struct.faiss::FlatCodesDistanceComputer", i64, i64, ptr, ptr, i64, ptr, float, [4 x i8] }>

; Function Attrs: inlinehint mustprogress nounwind uwtable
define linkonce_odr void @_Z11prefetch_L2PKv(ptr noundef %0) #0 comdat {
  %2 = alloca ptr, align 8
  store ptr %0, ptr %2, align 8, !tbaa !140
  %3 = load ptr, ptr %2, align 8, !tbaa !140
  call void @llvm.prefetch.p0(ptr %3, i32 0, i32 2, i32 1)
  ret void
}

; Function Attrs: mustprogress uwtable
define internal noundef float @_ZN5faiss12_GLOBAL__N_118FlatL2WithNormsDisclEl(ptr noundef nonnull align 8 dereferenceable(76) %0, i64 noundef %1) unnamed_addr #2 align 2 {
  %3 = alloca ptr, align 8
  %4 = alloca i64, align 8
  %5 = alloca ptr, align 8
  %6 = alloca float, align 4
  store ptr %0, ptr %3, align 8, !tbaa !152
  store i64 %1, ptr %4, align 8, !tbaa !13
  %7 = load ptr, ptr %3, align 8
  call void @llvm.lifetime.start.p0(i64 8, ptr %5) #18
  %8 = getelementptr inbounds nuw %"struct.faiss::FlatCodesDistanceComputer", ptr %7, i32 0, i32 1
  %9 = load ptr, ptr %8, align 8, !tbaa !120
  %10 = load i64, ptr %4, align 8, !tbaa !13
  %11 = getelementptr inbounds nuw %"struct.faiss::FlatCodesDistanceComputer", ptr %7, i32 0, i32 2
  %12 = load i64, ptr %11, align 8, !tbaa !121
  %13 = mul i64 %10, %12
  %14 = getelementptr inbounds nuw i8, ptr %9, i64 %13
  store ptr %14, ptr %5, align 8, !tbaa !15
  %15 = getelementptr inbounds nuw %"struct.faiss::(anonymous namespace)::FlatL2WithNormsDis", ptr %7, i32 0, i32 6
  %16 = load ptr, ptr %15, align 8, !tbaa !160
  %17 = load i64, ptr %4, align 8, !tbaa !13
  %18 = getelementptr inbounds float, ptr %16, i64 %17
  call void @_Z11prefetch_L2PKv(ptr noundef %18)
  call void @llvm.lifetime.start.p0(i64 4, ptr %6) #18
  %19 = getelementptr inbounds nuw %"struct.faiss::(anonymous namespace)::FlatL2WithNormsDis", ptr %7, i32 0, i32 3
  %20 = load ptr, ptr %19, align 8, !tbaa !157
  %21 = load ptr, ptr %5, align 8, !tbaa !15
  %22 = getelementptr inbounds nuw %"struct.faiss::(anonymous namespace)::FlatL2WithNormsDis", ptr %7, i32 0, i32 1
  %23 = load i64, ptr %22, align 8, !tbaa !154
  %24 = call noundef float @_ZN5faiss18fvec_inner_productEPKfS1_m(ptr noundef %20, ptr noundef %21, i64 noundef %23)
  store float %24, ptr %6, align 4, !tbaa !45
  %25 = getelementptr inbounds nuw %"struct.faiss::(anonymous namespace)::FlatL2WithNormsDis", ptr %7, i32 0, i32 7
  %26 = load float, ptr %25, align 8, !tbaa !161
  %27 = getelementptr inbounds nuw %"struct.faiss::(anonymous namespace)::FlatL2WithNormsDis", ptr %7, i32 0, i32 6
  %28 = load ptr, ptr %27, align 8, !tbaa !160
  %29 = load i64, ptr %4, align 8, !tbaa !13
  %30 = getelementptr inbounds float, ptr %28, i64 %29
  %31 = load float, ptr %30, align 4, !tbaa !45
  %32 = fadd float %26, %31
  %33 = load float, ptr %6, align 4, !tbaa !45
  %34 = call float @llvm.fmuladd.f32(float -2.000000e+00, float %33, float %32)
  call void @llvm.lifetime.end.p0(i64 4, ptr %6) #18
  call void @llvm.lifetime.end.p0(i64 8, ptr %5) #18
  ret float %34
}