; Function Attrs: mustprogress uwtable
define internal noundef float @_ZN5faiss12_GLOBAL__N_118FlatL2WithNormsDisclEl(ptr noundef nonnull readonly align 8 captures(none) dereferenceable(76) %0, i64 noundef %1) unnamed_addr #2 align 2 {
  %3 = getelementptr inbounds nuw i8, ptr %0, i64 8
  %4 = load ptr, ptr %3, align 8, !tbaa !49
  %5 = getelementptr inbounds nuw i8, ptr %0, i64 16
  %6 = load i64, ptr %5, align 8, !tbaa !52
  %7 = mul i64 %6, %1
  %8 = getelementptr inbounds nuw i8, ptr %4, i64 %7
  %9 = getelementptr inbounds nuw i8, ptr %0, i64 64
  %10 = load ptr, ptr %9, align 8, !tbaa !75
  %11 = getelementptr inbounds float, ptr %10, i64 %1
  tail call void @llvm.prefetch.p0(ptr %11, i32 0, i32 2, i32 1)
  %12 = getelementptr inbounds nuw i8, ptr %0, i64 40
  %13 = load ptr, ptr %12, align 8, !tbaa !72
  %14 = getelementptr inbounds nuw i8, ptr %0, i64 24
  %15 = load i64, ptr %14, align 8, !tbaa !69
  %16 = tail call noundef float @_ZN5faiss18fvec_inner_productEPKfS1_m(ptr noundef %13, ptr noundef %8, i64 noundef %15)
  %17 = getelementptr inbounds nuw i8, ptr %0, i64 72
  %18 = load float, ptr %17, align 8, !tbaa !76
  %19 = load ptr, ptr %9, align 8, !tbaa !75
  %20 = getelementptr inbounds float, ptr %19, i64 %1
  %21 = load float, ptr %20, align 4, !tbaa !96
  %22 = fadd float %18, %21
  %23 = tail call float @llvm.fmuladd.f32(float %16, float -2.000000e+00, float %22)
  ret float %23
}